; Function Attrs: mustprogress uwtable
define hidden void @_ZN4cvc58internal6theory2bv8TheoryBV10notifyFactENS0_12NodeTemplateILb0EEEbS5_b(ptr nocapture noundef nonnull readonly align 8 dereferenceable(3808) %this, ptr nocapture noundef readonly %atom, i1 noundef zeroext %pol, ptr nocapture noundef readonly %fact, i1 noundef zeroext %isInternal) unnamed_addr #3 align 2 personality ptr @__gxx_personality_v0 {
entry:
  %agg.tmp = alloca %"class.cvc5::internal::NodeTemplate.561", align 8
  %agg.tmp3 = alloca %"class.cvc5::internal::NodeTemplate.561", align 8
  %d_internal = getelementptr inbounds i8, ptr %this, i64 408
  %0 = load ptr, ptr %d_internal, align 8
  %1 = load ptr, ptr %atom, align 8
  store ptr %1, ptr %agg.tmp, align 8
  %2 = load ptr, ptr %fact, align 8
  store ptr %2, ptr %agg.tmp3, align 8
  %vtable = load ptr, ptr %0, align 8
  %vfn = getelementptr inbounds i8, ptr %vtable, i64 64
  %3 = load ptr, ptr %vfn, align 8
  call void %3(ptr noundef nonnull align 8 dereferenceable(32) %0, ptr noundef nonnull %agg.tmp, i1 noundef zeroext %pol, ptr noundef nonnull %agg.tmp3, i1 noundef zeroext %isInternal)
  ret void
}